target datalayout = "e-m:e-p270:32:32-p271:32:32-p272:64:64-i64:64-i128:128-f80:128-n8:16:32:64-S128"
target triple = "x86_64-pc-linux-gnu"

%struct.AVRational = type { i32, i32 }
%struct.AVFormatContext = type { ptr, ptr, ptr, ptr, ptr, i32, i32, ptr, i32, ptr, i32, ptr, ptr, i64, i64, i64, i32, i32, i32, i64, i64, ptr, i32, i32, ptr, i32, i32, i32, i32, ptr, i64, i32, i32, %struct.AVIOInterruptCB, i32, i32, i32, i32, i64, i32, i32, i32, i32, i32, i32, i32, i32, i32, i32, i32, i32, i64, i32, i32, i32, i32, i32, ptr, ptr, ptr, ptr, i32, ptr, ptr, ptr, ptr, i32, ptr, ptr, i64, ptr, ptr, ptr, i64 }
%struct.AVIOInterruptCB = type { ptr, ptr }
%struct.ID3v2ExtraMeta = type { ptr, ptr, %union.anon }
%union.anon = type { %struct.ID3v2ExtraMetaGEOB }
%struct.ID3v2ExtraMetaGEOB = type { i32, ptr, ptr, ptr, ptr }
%struct.ID3v2ExtraMetaAPIC = type { ptr, ptr, ptr, i32 }
%struct.AVStream = type { ptr, i32, i32, ptr, ptr, %struct.AVRational, i64, i64, i64, i32, i32, %struct.AVRational, ptr, %struct.AVRational, %struct.AVPacket, i32, %struct.AVRational, i32 }
%struct.AVPacket = type { ptr, i64, i64, ptr, i32, i32, i32, ptr, i32, i64, i64, ptr, ptr, %struct.AVRational }
%struct.AVCodecParameters = type { i32, i32, i32, ptr, i32, ptr, i32, i32, i64, i32, i32, i32, i32, i32, i32, %struct.AVRational, %struct.AVRational, i32, i32, i32, i32, i32, i32, i32, %struct.AVChannelLayout, i32, i32, i32, i32, i32, i32 }
%struct.AVChannelLayout = type { i32, i32, %union.anon.0, ptr }
%union.anon.0 = type { i64 }

@.str.11 = private unnamed_addr constant [6 x i8] c"title\00", align 1
@.str.66 = private unnamed_addr constant [5 x i8] c"APIC\00", align 1
@.str.67 = private unnamed_addr constant [8 x i8] c"comment\00", align 1

; Function Attrs: alwaysinline nounwind willreturn memory(none) uwtable
define internal i32 @av_bswap32(i32 noundef %0) #8 {
  %2 = alloca i32, align 4
  store i32 %0, ptr %2, align 4, !tbaa !10
  %3 = load i32, ptr %2, align 4, !tbaa !10
  %4 = shl i32 %3, 8
  %5 = and i32 %4, 65280
  %6 = load i32, ptr %2, align 4, !tbaa !10
  %7 = lshr i32 %6, 8
  %8 = and i32 %7, 255
  %9 = or i32 %5, %8
  %10 = shl i32 %9, 16
  %11 = load i32, ptr %2, align 4, !tbaa !10
  %12 = lshr i32 %11, 16
  %13 = shl i32 %12, 8
  %14 = and i32 %13, 65280
  %15 = load i32, ptr %2, align 4, !tbaa !10
  %16 = lshr i32 %15, 16
  %17 = lshr i32 %16, 8
  %18 = and i32 %17, 255
  %19 = or i32 %14, %18
  %20 = or i32 %10, %19
  ret i32 %20
}

; Function Attrs: inlinehint nounwind willreturn memory(none) uwtable
define internal i64 @av_bswap64(i64 noundef %0) #4 {
  %2 = alloca i64, align 8
  store i64 %0, ptr %2, align 8, !tbaa !21
  %3 = load i64, ptr %2, align 8, !tbaa !21
  %4 = trunc i64 %3 to i32
  %5 = call i32 @av_bswap32(i32 noundef %4) #12
  %6 = zext i32 %5 to i64
  %7 = shl i64 %6, 32
  %8 = load i64, ptr %2, align 8, !tbaa !21
  %9 = lshr i64 %8, 32
  %10 = trunc i64 %9 to i32
  %11 = call i32 @av_bswap32(i32 noundef %10) #12
  %12 = zext i32 %11 to i64
  %13 = or i64 %7, %12
  ret i64 %13
}

; Function Attrs: nounwind uwtable
define i32 @ff_id3v2_parse_apic(ptr noundef %0, ptr noundef %1) #0 {
  %3 = alloca i32, align 4
  %4 = alloca ptr, align 8
  %5 = alloca ptr, align 8
  %6 = alloca ptr, align 8
  %7 = alloca ptr, align 8
  %8 = alloca ptr, align 8
  %9 = alloca i32, align 4
  %10 = alloca i32, align 4
  store ptr %0, ptr %4, align 8, !tbaa !19
  store ptr %1, ptr %5, align 8, !tbaa !23
  call void @llvm.lifetime.start.p0(i64 8, ptr %6) #10
  %11 = load ptr, ptr %5, align 8, !tbaa !23
  store ptr %11, ptr %6, align 8, !tbaa !23
  br label %12

12:                                               ; preds = %87, %2
  %13 = load ptr, ptr %6, align 8, !tbaa !23
  %14 = icmp ne ptr %13, null
  br i1 %14, label %15, label %91

15:                                               ; preds = %12
  call void @llvm.lifetime.start.p0(i64 8, ptr %7) #10
  call void @llvm.lifetime.start.p0(i64 8, ptr %8) #10
  call void @llvm.lifetime.start.p0(i64 4, ptr %9) #10
  %16 = load ptr, ptr %6, align 8, !tbaa !23
  %17 = getelementptr inbounds nuw %struct.ID3v2ExtraMeta, ptr %16, i32 0, i32 0
  %18 = load ptr, ptr %17, align 8, !tbaa !41
  %19 = call i32 @strcmp(ptr noundef %18, ptr noundef @.str.66) #11
  %20 = icmp ne i32 %19, 0
  br i1 %20, label %21, label %22

21:                                               ; preds = %15
  store i32 4, ptr %10, align 4
  br label %84

22:                                               ; preds = %15
  %23 = load ptr, ptr %6, align 8, !tbaa !23
  %24 = getelementptr inbounds nuw %struct.ID3v2ExtraMeta, ptr %23, i32 0, i32 2
  store ptr %24, ptr %7, align 8, !tbaa !52
  %25 = load ptr, ptr %4, align 8, !tbaa !19
  %26 = load ptr, ptr %7, align 8, !tbaa !52
  %27 = getelementptr inbounds nuw %struct.ID3v2ExtraMetaAPIC, ptr %26, i32 0, i32 0
  %28 = call i32 @ff_add_attached_pic(ptr noundef %25, ptr noundef null, ptr noundef null, ptr noundef %27, i32 noundef 0)
  store i32 %28, ptr %9, align 4, !tbaa !10
  %29 = load i32, ptr %9, align 4, !tbaa !10
  %30 = icmp slt i32 %29, 0
  br i1 %30, label %31, label %33

31:                                               ; preds = %22
  %32 = load i32, ptr %9, align 4, !tbaa !10
  store i32 %32, ptr %3, align 4
  store i32 1, ptr %10, align 4
  br label %84

33:                                               ; preds = %22
  %34 = load ptr, ptr %4, align 8, !tbaa !19
  %35 = getelementptr inbounds nuw %struct.AVFormatContext, ptr %34, i32 0, i32 7
  %36 = load ptr, ptr %35, align 8, !tbaa !54
  %37 = load ptr, ptr %4, align 8, !tbaa !19
  %38 = getelementptr inbounds nuw %struct.AVFormatContext, ptr %37, i32 0, i32 6
  %39 = load i32, ptr %38, align 4, !tbaa !55
  %40 = sub i32 %39, 1
  %41 = zext i32 %40 to i64
  %42 = getelementptr inbounds nuw ptr, ptr %36, i64 %41
  %43 = load ptr, ptr %42, align 8, !tbaa !56
  store ptr %43, ptr %8, align 8, !tbaa !56
  %44 = load ptr, ptr %7, align 8, !tbaa !52
  %45 = getelementptr inbounds nuw %struct.ID3v2ExtraMetaAPIC, ptr %44, i32 0, i32 3
  %46 = load i32, ptr %45, align 8, !tbaa !58
  %47 = load ptr, ptr %8, align 8, !tbaa !56
  %48 = getelementptr inbounds nuw %struct.AVStream, ptr %47, i32 0, i32 3
  %49 = load ptr, ptr %48, align 8, !tbaa !61
  %50 = getelementptr inbounds nuw %struct.AVCodecParameters, ptr %49, i32 0, i32 1
  store i32 %46, ptr %50, align 4, !tbaa !67
  %51 = load ptr, ptr %8, align 8, !tbaa !56
  %52 = getelementptr inbounds nuw %struct.AVStream, ptr %51, i32 0, i32 14
  %53 = getelementptr inbounds nuw %struct.AVPacket, ptr %52, i32 0, i32 3
  %54 = load ptr, ptr %53, align 8, !tbaa !70
  %55 = load i64, ptr %54, align 1, !tbaa !9
  %56 = call i64 @av_bswap64(i64 noundef %55) #12
  %57 = icmp eq i64 %56, -8552249625308161526
  br i1 %57, label %58, label %63

58:                                               ; preds = %33
  %59 = load ptr, ptr %8, align 8, !tbaa !56
  %60 = getelementptr inbounds nuw %struct.AVStream, ptr %59, i32 0, i32 3
  %61 = load ptr, ptr %60, align 8, !tbaa !61
  %62 = getelementptr inbounds nuw %struct.AVCodecParameters, ptr %61, i32 0, i32 1
  store i32 61, ptr %62, align 4, !tbaa !67
  br label %63

63:                                               ; preds = %58, %33
  %64 = load ptr, ptr %7, align 8, !tbaa !52
  %65 = getelementptr inbounds nuw %struct.ID3v2ExtraMetaAPIC, ptr %64, i32 0, i32 2
  %66 = load ptr, ptr %65, align 8, !tbaa !71
  %67 = getelementptr inbounds i8, ptr %66, i64 0
  %68 = load i8, ptr %67, align 1, !tbaa !9
  %69 = icmp ne i8 %68, 0
  br i1 %69, label %70, label %77

70:                                               ; preds = %63
  %71 = load ptr, ptr %8, align 8, !tbaa !56
  %72 = getelementptr inbounds nuw %struct.AVStream, ptr %71, i32 0, i32 12
  %73 = load ptr, ptr %7, align 8, !tbaa !52
  %74 = getelementptr inbounds nuw %struct.ID3v2ExtraMetaAPIC, ptr %73, i32 0, i32 2
  %75 = load ptr, ptr %74, align 8, !tbaa !71
  %76 = call i32 @av_dict_set(ptr noundef %72, ptr noundef @.str.11, ptr noundef %75, i32 noundef 0)
  br label %77

77:                                               ; preds = %70, %63
  %78 = load ptr, ptr %8, align 8, !tbaa !56
  %79 = getelementptr inbounds nuw %struct.AVStream, ptr %78, i32 0, i32 12
  %80 = load ptr, ptr %7, align 8, !tbaa !52
  %81 = getelementptr inbounds nuw %struct.ID3v2ExtraMetaAPIC, ptr %80, i32 0, i32 1
  %82 = load ptr, ptr %81, align 8, !tbaa !72
  %83 = call i32 @av_dict_set(ptr noundef %79, ptr noundef @.str.67, ptr noundef %82, i32 noundef 0)
  store i32 0, ptr %10, align 4
  br label %84

84:                                               ; preds = %77, %31, %21
  call void @llvm.lifetime.end.p0(i64 4, ptr %9) #10
  call void @llvm.lifetime.end.p0(i64 8, ptr %8) #10
  call void @llvm.lifetime.end.p0(i64 8, ptr %7) #10
  %85 = load i32, ptr %10, align 4
  switch i32 %85, label %92 [
    i32 0, label %86
    i32 4, label %87
  ]

86:                                               ; preds = %84
  br label %87

87:                                               ; preds = %86, %84
  %88 = load ptr, ptr %6, align 8, !tbaa !23
  %89 = getelementptr inbounds nuw %struct.ID3v2ExtraMeta, ptr %88, i32 0, i32 1
  %90 = load ptr, ptr %89, align 8, !tbaa !47
  store ptr %90, ptr %6, align 8, !tbaa !23
  br label %12, !llvm.loop !73

91:                                               ; preds = %12
  store i32 0, ptr %3, align 4
  store i32 1, ptr %10, align 4
  br label %92

92:                                               ; preds = %91, %84
  call void @llvm.lifetime.end.p0(i64 8, ptr %6) #10
  %93 = load i32, ptr %3, align 4
  ret i32 %93
}