; Function Attrs: nounwind uwtable
define range(i32 -2147483648, 1) i32 @ff_id3v2_parse_apic(ptr noundef %0, ptr noundef %1) local_unnamed_addr #2 {
  %.not29 = icmp eq ptr %1, null
  br i1 %.not29, label %._crit_edge, label %.lr.ph

.lr.ph:                                           ; preds = %2
  %3 = getelementptr inbounds nuw i8, ptr %0, i64 48
  %4 = getelementptr inbounds nuw i8, ptr %0, i64 44
  br label %5

5:                                                ; preds = %.lr.ph, %39
  %.02230 = phi ptr [ %1, %.lr.ph ], [ %41, %39 ]
  %6 = load ptr, ptr %.02230, align 8, !tbaa !47
  %7 = tail call i32 @strcmp(ptr noundef nonnull dereferenceable(1) %6, ptr noundef nonnull dereferenceable(5) @.str.66) #10
  %.not24 = icmp eq i32 %7, 0
  br i1 %.not24, label %8, label %39

8:                                                ; preds = %5
  %9 = getelementptr inbounds nuw i8, ptr %.02230, i64 16
  %10 = tail call i32 @ff_add_attached_pic(ptr noundef %0, ptr noundef null, ptr noundef null, ptr noundef nonnull %9, i32 noundef 0) #9
  %11 = icmp slt i32 %10, 0
  br i1 %11, label %._crit_edge, label %12

12:                                               ; preds = %8
  %13 = load ptr, ptr %3, align 8, !tbaa !52
  %14 = load i32, ptr %4, align 4, !tbaa !53
  %15 = add i32 %14, -1
  %16 = zext i32 %15 to i64
  %17 = getelementptr inbounds nuw ptr, ptr %13, i64 %16
  %18 = load ptr, ptr %17, align 8, !tbaa !54
  %19 = getelementptr inbounds nuw i8, ptr %.02230, i64 40
  %20 = load i32, ptr %19, align 8, !tbaa !56
  %21 = getelementptr inbounds nuw i8, ptr %18, i64 16
  %22 = load ptr, ptr %21, align 8, !tbaa !59
  %23 = getelementptr inbounds nuw i8, ptr %22, i64 4
  store i32 %20, ptr %23, align 4, !tbaa !65
  %24 = getelementptr inbounds nuw i8, ptr %18, i64 120
  %25 = load ptr, ptr %24, align 8, !tbaa !68
  %26 = load i64, ptr %25, align 1, !tbaa !4
  %27 = icmp eq i64 %26, 727905341920923785
  %spec.store.select = select i1 %27, i32 61, i32 %20
  store i32 %spec.store.select, ptr %23, align 4
  %28 = getelementptr inbounds nuw i8, ptr %.02230, i64 32
  %29 = load ptr, ptr %28, align 8, !tbaa !69
  %30 = load i8, ptr %29, align 1, !tbaa !4
  %.not25 = icmp eq i8 %30, 0
  br i1 %.not25, label %34, label %31

31:                                               ; preds = %12
  %32 = getelementptr inbounds nuw i8, ptr %18, i64 80
  %33 = tail call i32 @av_dict_set(ptr noundef nonnull %32, ptr noundef nonnull @.str.11, ptr noundef nonnull %29, i32 noundef 0) #9
  br label %34

34:                                               ; preds = %31, %12
  %35 = getelementptr inbounds nuw i8, ptr %18, i64 80
  %36 = getelementptr inbounds nuw i8, ptr %.02230, i64 24
  %37 = load ptr, ptr %36, align 8, !tbaa !70
  %38 = tail call i32 @av_dict_set(ptr noundef nonnull %35, ptr noundef nonnull @.str.67, ptr noundef %37, i32 noundef 0) #9
  br label %39

39:                                               ; preds = %34, %5
  %40 = getelementptr inbounds nuw i8, ptr %.02230, i64 8
  %41 = load ptr, ptr %40, align 8, !tbaa !50
  %.not = icmp eq ptr %41, null
  br i1 %.not, label %._crit_edge, label %5, !llvm.loop !71

._crit_edge:                                      ; preds = %39, %8, %2
  %.2 = phi i32 [ 0, %2 ], [ %10, %8 ], [ 0, %39 ]
  ret i32 %.2
}